(dp0
VlastCheck
p1
F1671315339.5417256
sVdontRemindVersion
p2
V2022.3.2
p3
sVpendingUpdateFile
p4
NsVpendingUpdateVersion
p5
NsVpendingUpdateAPIVersion
p6
(I0
I0
I0
tp7
sVpendingUpdateBackCompatToAPIVersion
p8
g7
s.