(dp0
VlastCheck
p1
F1782651825.3456004
sVdontRemindVersion
p2
NsVpendingUpdateFile
p3
NsVpendingUpdateVersion
p4
NsVpendingUpdateAPIVersion
p5
(I0
I0
I0
tp6
sVpendingUpdateBackCompatToAPIVersion
p7
g6
sVid
p8
V88bc14fbdc7840578b4cb40ae636c3cf
p9
s.